target datalayout = "e-m:e-p270:32:32-p271:32:32-p272:64:64-i64:64-i128:128-f80:128-n8:16:32:64-S128"
target triple = "x86_64-pc-linux-gnu"

%"struct.std::_Vector_base.24" = type { %"struct.std::_Vector_base<const Fact *, std::allocator<const Fact *>>::_Vector_impl" }
%"struct.std::_Vector_base<const Fact *, std::allocator<const Fact *>>::_Vector_impl" = type { %"struct.std::_Vector_base<const Fact *, std::allocator<const Fact *>>::_Vector_impl_data" }
%"struct.std::_Vector_base<const Fact *, std::allocator<const Fact *>>::_Vector_impl_data" = type { ptr, ptr, ptr }
%class.Fact = type <{ ptr, i32, [4 x i8] }>

; Function Attrs: mustprogress nounwind uwtable
define linkonce_odr dso_local noundef nonnull align 8 dereferenceable(8) ptr @_ZNSt6vectorIPK4FactSaIS2_EEixEm(ptr noundef nonnull align 8 dereferenceable(24) %0, i64 noundef %1) #5 comdat align 2 {
  %3 = alloca ptr, align 8
  %4 = alloca i64, align 8
  store ptr %0, ptr %3, align 8, !tbaa !70
  store i64 %1, ptr %4, align 8, !tbaa !28
  %5 = load ptr, ptr %3, align 8
  %6 = getelementptr inbounds nuw %"struct.std::_Vector_base.24", ptr %5, i32 0, i32 0
  %7 = getelementptr inbounds nuw %"struct.std::_Vector_base<const Fact *, std::allocator<const Fact *>>::_Vector_impl_data", ptr %6, i32 0, i32 0
  %8 = load ptr, ptr %7, align 8, !tbaa !157
  %9 = load i64, ptr %4, align 8, !tbaa !28
  %10 = getelementptr inbounds nuw ptr, ptr %8, i64 %9
  ret ptr %10
}

; Function Attrs: mustprogress nounwind uwtable
define linkonce_odr dso_local noundef i64 @_ZNKSt6vectorIPK4FactSaIS2_EE4sizeEv(ptr noundef nonnull align 8 dereferenceable(24) %0) #5 comdat align 2 {
  %2 = alloca ptr, align 8
  store ptr %0, ptr %2, align 8, !tbaa !70
  %3 = load ptr, ptr %2, align 8
  %4 = getelementptr inbounds nuw %"struct.std::_Vector_base.24", ptr %3, i32 0, i32 0
  %5 = getelementptr inbounds nuw %"struct.std::_Vector_base<const Fact *, std::allocator<const Fact *>>::_Vector_impl_data", ptr %4, i32 0, i32 1
  %6 = load ptr, ptr %5, align 8, !tbaa !160
  %7 = getelementptr inbounds nuw %"struct.std::_Vector_base.24", ptr %3, i32 0, i32 0
  %8 = getelementptr inbounds nuw %"struct.std::_Vector_base<const Fact *, std::allocator<const Fact *>>::_Vector_impl_data", ptr %7, i32 0, i32 0
  %9 = load ptr, ptr %8, align 8, !tbaa !157
  %10 = ptrtoint ptr %6 to i64
  %11 = ptrtoint ptr %9 to i64
  %12 = sub i64 %10, %11
  %13 = sdiv exact i64 %12, 8
  ret i64 %13
}

; Function Attrs: mustprogress uwtable
define dso_local void @_ZN11FactPointTo32update_facts_with_modified_indexERSt6vectorIPK4FactSaIS3_EEPK8Variable(ptr noundef nonnull align 8 dereferenceable(24) %0, ptr noundef %1) #6 align 2 {
  %3 = alloca ptr, align 8
  %4 = alloca ptr, align 8
  %5 = alloca i64, align 8
  %6 = alloca ptr, align 8
  %7 = alloca ptr, align 8
  store ptr %0, ptr %3, align 8, !tbaa !70
  store ptr %1, ptr %4, align 8, !tbaa !4
  call void @llvm.lifetime.start.p0(i64 8, ptr %5) #3
  store i64 0, ptr %5, align 8, !tbaa !28
  br label %8

8:                                                ; preds = %39, %2
  %9 = load i64, ptr %5, align 8, !tbaa !28
  %10 = load ptr, ptr %3, align 8, !tbaa !70
  %11 = call noundef i64 @_ZNKSt6vectorIPK4FactSaIS2_EE4sizeEv(ptr noundef nonnull align 8 dereferenceable(24) %10) #3
  %12 = icmp ult i64 %9, %11
  br i1 %12, label %13, label %42

13:                                               ; preds = %8
  %14 = load ptr, ptr %3, align 8, !tbaa !70
  %15 = load i64, ptr %5, align 8, !tbaa !28
  %16 = call noundef nonnull align 8 dereferenceable(8) ptr @_ZNSt6vectorIPK4FactSaIS2_EEixEm(ptr noundef nonnull align 8 dereferenceable(24) %14, i64 noundef %15) #3
  %17 = load ptr, ptr %16, align 8, !tbaa !61
  %18 = getelementptr inbounds nuw %class.Fact, ptr %17, i32 0, i32 1
  %19 = load i32, ptr %18, align 8, !tbaa !187
  %20 = icmp eq i32 %19, 1
  br i1 %20, label %21, label %38

21:                                               ; preds = %13
  call void @llvm.lifetime.start.p0(i64 8, ptr %6) #3
  %22 = load ptr, ptr %3, align 8, !tbaa !70
  %23 = load i64, ptr %5, align 8, !tbaa !28
  %24 = call noundef nonnull align 8 dereferenceable(8) ptr @_ZNSt6vectorIPK4FactSaIS2_EEixEm(ptr noundef nonnull align 8 dereferenceable(24) %22, i64 noundef %23) #3
  %25 = load ptr, ptr %24, align 8, !tbaa !61
  store ptr %25, ptr %6, align 8, !tbaa !26
  call void @llvm.lifetime.start.p0(i64 8, ptr %7) #3
  %26 = load ptr, ptr %6, align 8, !tbaa !26
  %27 = load ptr, ptr %4, align 8, !tbaa !4
  %28 = call noundef ptr @_ZNK11FactPointTo26update_with_modified_indexEPK8Variable(ptr noundef nonnull align 8 dereferenceable(48) %26, ptr noundef %27)
  store ptr %28, ptr %7, align 8, !tbaa !26
  %29 = load ptr, ptr %7, align 8, !tbaa !26
  %30 = load ptr, ptr %6, align 8, !tbaa !26
  %31 = icmp ne ptr %29, %30
  br i1 %31, label %32, label %37

32:                                               ; preds = %21
  %33 = load ptr, ptr %7, align 8, !tbaa !26
  %34 = load ptr, ptr %3, align 8, !tbaa !70
  %35 = load i64, ptr %5, align 8, !tbaa !28
  %36 = call noundef nonnull align 8 dereferenceable(8) ptr @_ZNSt6vectorIPK4FactSaIS2_EEixEm(ptr noundef nonnull align 8 dereferenceable(24) %34, i64 noundef %35) #3
  store ptr %33, ptr %36, align 8, !tbaa !61
  br label %37

37:                                               ; preds = %32, %21
  call void @llvm.lifetime.end.p0(i64 8, ptr %7) #3
  call void @llvm.lifetime.end.p0(i64 8, ptr %6) #3
  br label %38

38:                                               ; preds = %37, %13
  br label %39

39:                                               ; preds = %38
  %40 = load i64, ptr %5, align 8, !tbaa !28
  %41 = add i64 %40, 1
  store i64 %41, ptr %5, align 8, !tbaa !28
  br label %8, !llvm.loop !218

42:                                               ; preds = %8
  call void @llvm.lifetime.end.p0(i64 8, ptr %5) #3
  ret void
}