; Function Attrs: mustprogress uwtable
define dso_local void @_ZN11FactPointTo32update_facts_with_modified_indexERSt6vectorIPK4FactSaIS3_EEPK8Variable(ptr noundef nonnull readonly align 8 captures(none) dereferenceable(24) %0, ptr noundef %1) local_unnamed_addr #6 align 2 {
  %3 = getelementptr inbounds nuw i8, ptr %0, i64 8
  %4 = load ptr, ptr %3, align 8, !tbaa !129
  %5 = load ptr, ptr %0, align 8, !tbaa !105
  %.not15 = icmp eq ptr %4, %5
  br i1 %.not15, label %._crit_edge, label %.lr.ph

.lr.ph:                                           ; preds = %2, %16
  %6 = phi ptr [ %17, %16 ], [ %5, %2 ]
  %.014 = phi i64 [ %18, %16 ], [ 0, %2 ]
  %7 = getelementptr inbounds nuw ptr, ptr %6, i64 %.014
  %8 = load ptr, ptr %7, align 8, !tbaa !44
  %9 = getelementptr inbounds nuw i8, ptr %8, i64 8
  %10 = load i32, ptr %9, align 8, !tbaa !143
  %11 = icmp eq i32 %10, 1
  br i1 %11, label %12, label %16

12:                                               ; preds = %.lr.ph
  %13 = tail call noundef ptr @_ZNK11FactPointTo26update_with_modified_indexEPK8Variable(ptr noundef nonnull align 8 dereferenceable(48) %8, ptr noundef %1)
  %.not = icmp eq ptr %13, %8
  %.pre = load ptr, ptr %0, align 8, !tbaa !105
  br i1 %.not, label %16, label %14

14:                                               ; preds = %12
  %15 = getelementptr inbounds nuw ptr, ptr %.pre, i64 %.014
  store ptr %13, ptr %15, align 8, !tbaa !44
  br label %16

16:                                               ; preds = %12, %14, %.lr.ph
  %17 = phi ptr [ %.pre, %12 ], [ %.pre, %14 ], [ %6, %.lr.ph ]
  %18 = add nuw i64 %.014, 1
  %19 = load ptr, ptr %3, align 8, !tbaa !129
  %20 = ptrtoint ptr %19 to i64
  %21 = ptrtoint ptr %17 to i64
  %22 = sub i64 %20, %21
  %23 = ashr exact i64 %22, 3
  %24 = icmp ult i64 %18, %23
  br i1 %24, label %.lr.ph, label %._crit_edge, !llvm.loop !164

._crit_edge:                                      ; preds = %16, %2
  ret void
}